; Function Attrs: nounwind uwtable
define noalias noundef ptr @Bbl_ManDfs(ptr noundef %0) local_unnamed_addr #0 {
  %2 = tail call noalias dereferenceable_or_null(16) ptr @malloc(i64 noundef 16) #15
  %3 = getelementptr inbounds nuw i8, ptr %2, i64 4
  store i32 0, ptr %3, align 4, !tbaa !27
  store i32 1000, ptr %2, align 8, !tbaa !24
  %4 = tail call noalias dereferenceable_or_null(8000) ptr @malloc(i64 noundef 8000) #15
  %5 = getelementptr inbounds nuw i8, ptr %2, i64 8
  store ptr %4, ptr %5, align 8, !tbaa !26
  %6 = tail call ptr @Bbl_ManObjFirst(ptr noundef %0) #14
  %.not9 = icmp eq ptr %6, null
  br i1 %.not9, label %._crit_edge, label %.lr.ph

.lr.ph:                                           ; preds = %1, %9
  %.010 = phi ptr [ %10, %9 ], [ %6, %1 ]
  %7 = tail call i32 @Bbl_ObjIsLut(ptr noundef nonnull %.010) #14
  %.not8 = icmp eq i32 %7, 0
  br i1 %.not8, label %9, label %8

8:                                                ; preds = %.lr.ph
  tail call void @Bbl_ManDfs_rec(ptr noundef nonnull %.010, ptr noundef nonnull %2)
  br label %9

9:                                                ; preds = %.lr.ph, %8
  %10 = tail call ptr @Bbl_ManObjNext(ptr noundef %0, ptr noundef nonnull %.010) #14
  %.not = icmp eq ptr %10, null
  br i1 %.not, label %._crit_edge, label %.lr.ph, !llvm.loop !36

._crit_edge:                                      ; preds = %9, %1
  ret ptr %2
}